; Function Attrs: mustprogress uwtable
define hidden noundef ptr @mk_ite_core(ptr noundef %c, ptr noundef %t1, ptr noundef %t2, ptr noundef %t3) local_unnamed_addr #3 {
entry:
  %m_manager.i = getelementptr inbounds i8, ptr %c, i64 232
  %0 = load ptr, ptr %m_manager.i, align 8
  %call.i = tail call noundef ptr @_ZN11ast_manager6mk_appEiiP4exprS1_S1_(ptr noundef nonnull align 8 dereferenceable(976) %0, i32 noundef 0, i32 noundef 4, ptr noundef %t1, ptr noundef %t2, ptr noundef %t3)
  tail call void @_ZN3api7context14save_ast_trailEP3ast(ptr noundef nonnull align 8 dereferenceable(3048) %c, ptr noundef %call.i)
  tail call void @_ZN3api7context11check_sortsEP3ast(ptr noundef nonnull align 8 dereferenceable(3048) %c, ptr noundef %call.i)
  ret ptr %call.i
}